target datalayout = "e-m:e-p270:32:32-p271:32:32-p272:64:64-i64:64-i128:128-f80:128-n8:16:32:64-S128"
target triple = "x86_64-pc-linux-gnu"

%"class.std::basic_string_view" = type { i64, ptr }
%"class.nix::AutoCloseFD" = type { i32 }
%"class.nix::Pipe" = type { %"class.nix::AutoCloseFD", %"class.nix::AutoCloseFD" }
%"class.std::thread" = type { %"class.std::thread::id" }
%"class.std::thread::id" = type { i64 }
%class.Finally = type { %class.anon.213 }
%class.anon.213 = type { ptr, ptr, ptr }

@.str.272 = private unnamed_addr constant [2 x i8] c"x\00", align 1

; Function Attrs: mustprogress nounwind uwtable
define linkonce_odr noundef zeroext i1 @_ZSteqNSt6thread2idES0_(i64 %0, i64 %1) #2 comdat {
  %3 = alloca %"class.std::thread::id", align 8
  %4 = alloca %"class.std::thread::id", align 8
  %5 = getelementptr inbounds %"class.std::thread::id", ptr %3, i32 0, i32 0
  store i64 %0, ptr %5, align 8
  %6 = getelementptr inbounds %"class.std::thread::id", ptr %4, i32 0, i32 0
  store i64 %1, ptr %6, align 8
  %7 = getelementptr inbounds %"class.std::thread::id", ptr %3, i32 0, i32 0
  %8 = load i64, ptr %7, align 8
  %9 = getelementptr inbounds %"class.std::thread::id", ptr %4, i32 0, i32 0
  %10 = load i64, ptr %9, align 8
  %11 = icmp eq i64 %8, %10
  ret i1 %11
}

; Function Attrs: mustprogress nounwind uwtable
define linkonce_odr void @_ZNSt6thread2idC2Ev(ptr noundef nonnull align 8 dereferenceable(8) %0) unnamed_addr #2 comdat align 2 {
  %2 = alloca ptr, align 8
  store ptr %0, ptr %2, align 8
  %3 = load ptr, ptr %2, align 8
  %4 = getelementptr inbounds %"class.std::thread::id", ptr %3, i32 0, i32 0
  store i64 0, ptr %4, align 8
  ret void
}

; Function Attrs: mustprogress nounwind uwtable
define linkonce_odr noundef i64 @_ZNSt11char_traitsIcE6lengthEPKc(ptr noundef %0) #2 comdat align 2 {
  %2 = alloca ptr, align 8
  store ptr %0, ptr %2, align 8
  %3 = load ptr, ptr %2, align 8
  %4 = call i64 @strlen(ptr noundef %3) #1
  ret i64 %4
}

; Function Attrs: mustprogress nounwind uwtable
define linkonce_odr noundef zeroext i1 @_ZNKSt6thread8joinableEv(ptr noundef nonnull align 8 dereferenceable(8) %0) #2 comdat align 2 {
  %2 = alloca ptr, align 8
  %3 = alloca %"class.std::thread::id", align 8
  %4 = alloca %"class.std::thread::id", align 8
  store ptr %0, ptr %2, align 8
  %5 = load ptr, ptr %2, align 8
  %6 = getelementptr inbounds %"class.std::thread", ptr %5, i32 0, i32 0
  call void @llvm.memcpy.p0.p0.i64(ptr align 8 %3, ptr align 8 %6, i64 8, i1 false)
  call void @_ZNSt6thread2idC2Ev(ptr noundef nonnull align 8 dereferenceable(8) %4) #1
  %7 = getelementptr inbounds %"class.std::thread::id", ptr %3, i32 0, i32 0
  %8 = load i64, ptr %7, align 8
  %9 = getelementptr inbounds %"class.std::thread::id", ptr %4, i32 0, i32 0
  %10 = load i64, ptr %9, align 8
  %11 = call noundef zeroext i1 @_ZSteqNSt6thread2idES0_(i64 %8, i64 %10) #1
  %12 = xor i1 %11, true
  ret i1 %12
}

; Function Attrs: mustprogress nounwind uwtable
define linkonce_odr void @_ZNSt17basic_string_viewIcSt11char_traitsIcEEC2EPKc(ptr noundef nonnull align 8 dereferenceable(16) %0, ptr noundef nonnull %1) unnamed_addr #2 comdat align 2 {
  %3 = alloca ptr, align 8
  %4 = alloca ptr, align 8
  store ptr %0, ptr %3, align 8
  store ptr %1, ptr %4, align 8
  %5 = load ptr, ptr %3, align 8
  %6 = getelementptr inbounds %"class.std::basic_string_view", ptr %5, i32 0, i32 0
  %7 = load ptr, ptr %4, align 8
  %8 = call noundef i64 @_ZNSt11char_traitsIcE6lengthEPKc(ptr noundef %7)
  store i64 %8, ptr %6, align 8
  %9 = getelementptr inbounds %"class.std::basic_string_view", ptr %5, i32 0, i32 1
  %10 = load ptr, ptr %4, align 8
  store ptr %10, ptr %9, align 8
  ret void
}

; Function Attrs: mustprogress uwtable
define internal void @"_ZZN3nix10LocalStore14collectGarbageERKNS_9GCOptionsERNS_9GCResultsEENK3$_1clEv"(ptr noundef nonnull align 8 dereferenceable(24) %0) #5 align 2 {
  %2 = alloca ptr, align 8
  %3 = alloca %"class.std::basic_string_view", align 8
  store ptr %0, ptr %2, align 8
  %4 = load ptr, ptr %2, align 8
  %5 = getelementptr inbounds %class.anon.213, ptr %4, i32 0, i32 0
  %6 = load ptr, ptr %5, align 8
  %7 = getelementptr inbounds %"class.nix::Pipe", ptr %6, i32 0, i32 1
  %8 = call noundef i32 @_ZNK3nix11AutoCloseFD3getEv(ptr noundef nonnull align 4 dereferenceable(4) %7)
  call void @_ZNSt17basic_string_viewIcSt11char_traitsIcEEC2EPKc(ptr noundef nonnull align 8 dereferenceable(16) %3, ptr noundef @.str.272) #1
  %9 = getelementptr inbounds { i64, ptr }, ptr %3, i32 0, i32 0
  %10 = load i64, ptr %9, align 8
  %11 = getelementptr inbounds { i64, ptr }, ptr %3, i32 0, i32 1
  %12 = load ptr, ptr %11, align 8
  call void @_ZN3nix9writeFullEiSt17basic_string_viewIcSt11char_traitsIcEEb(i32 noundef %8, i64 %10, ptr %12, i1 noundef zeroext false)
  %13 = getelementptr inbounds %class.anon.213, ptr %4, i32 0, i32 1
  %14 = load ptr, ptr %13, align 8
  call void @_ZNSt18condition_variable10notify_allEv(ptr noundef nonnull align 8 dereferenceable(48) %14) #1
  %15 = getelementptr inbounds %class.anon.213, ptr %4, i32 0, i32 2
  %16 = load ptr, ptr %15, align 8
  %17 = call noundef zeroext i1 @_ZNKSt6thread8joinableEv(ptr noundef nonnull align 8 dereferenceable(8) %16) #1
  br i1 %17, label %18, label %21

18:                                               ; preds = %1
  %19 = getelementptr inbounds %class.anon.213, ptr %4, i32 0, i32 2
  %20 = load ptr, ptr %19, align 8
  call void @_ZNSt6thread4joinEv(ptr noundef nonnull align 8 dereferenceable(8) %20)
  br label %21

21:                                               ; preds = %18, %1
  ret void
}

; Function Attrs: mustprogress nounwind uwtable
define internal void @"_ZN7FinallyIZN3nix10LocalStore14collectGarbageERKNS0_9GCOptionsERNS0_9GCResultsEE3$_1ED2Ev"(ptr noundef nonnull align 8 dereferenceable(24) %0) unnamed_addr #2 align 2 personality ptr @__gxx_personality_v0 {
  %2 = alloca ptr, align 8
  store ptr %0, ptr %2, align 8
  %3 = load ptr, ptr %2, align 8
  %4 = getelementptr inbounds %class.Finally, ptr %3, i32 0, i32 0
  invoke void @"_ZZN3nix10LocalStore14collectGarbageERKNS_9GCOptionsERNS_9GCResultsEENK3$_1clEv"(ptr noundef nonnull align 8 dereferenceable(24) %4)
          to label %5 unwind label %6

5:                                                ; preds = %1
  ret void

6:                                                ; preds = %1
  %7 = landingpad { ptr, i32 }
          catch ptr null
  %8 = extractvalue { ptr, i32 } %7, 0
  call void @__clang_call_terminate(ptr %8) #24
  unreachable
}