; Function Attrs: mustprogress nounwind uwtable
define internal fastcc void @"_ZN7FinallyIZN3nix10LocalStore14collectGarbageERKNS0_9GCOptionsERNS0_9GCResultsEE3$_1ED2Ev"(ptr nocapture noundef nonnull readonly align 8 dereferenceable(24) %0) unnamed_addr #6 align 2 personality ptr @__gxx_personality_v0 {
  %2 = load ptr, ptr %0, align 8
  %3 = getelementptr inbounds i8, ptr %2, i64 4
  %4 = invoke noundef i32 @_ZNK3nix11AutoCloseFD3getEv(ptr noundef nonnull align 4 dereferenceable(4) %3)
          to label %.noexc unwind label %10

.noexc:                                           ; preds = %1
  invoke void @_ZN3nix9writeFullEiSt17basic_string_viewIcSt11char_traitsIcEEb(i32 noundef %4, i64 1, ptr nonnull @.str.272, i1 noundef zeroext false)
          to label %.noexc1 unwind label %10

.noexc1:                                          ; preds = %.noexc
  %5 = getelementptr inbounds i8, ptr %0, i64 8
  %6 = load ptr, ptr %5, align 8
  tail call void @_ZNSt18condition_variable10notify_allEv(ptr noundef nonnull align 8 dereferenceable(48) %6) #32
  %7 = getelementptr inbounds i8, ptr %0, i64 16
  %8 = load ptr, ptr %7, align 8
  %.sroa.0.0.copyload.i.i = load i64, ptr %8, align 8
  %.not.i = icmp eq i64 %.sroa.0.0.copyload.i.i, 0
  br i1 %.not.i, label %"_ZZN3nix10LocalStore14collectGarbageERKNS_9GCOptionsERNS_9GCResultsEENK3$_1clEv.exit", label %9

9:                                                ; preds = %.noexc1
  invoke void @_ZNSt6thread4joinEv(ptr noundef nonnull align 8 dereferenceable(8) %8)
          to label %"_ZZN3nix10LocalStore14collectGarbageERKNS_9GCOptionsERNS_9GCResultsEENK3$_1clEv.exit" unwind label %10

"_ZZN3nix10LocalStore14collectGarbageERKNS_9GCOptionsERNS_9GCResultsEENK3$_1clEv.exit": ; preds = %.noexc1, %9
  ret void

10:                                               ; preds = %9, %.noexc, %1
  %11 = landingpad { ptr, i32 }
          catch ptr null
  %12 = extractvalue { ptr, i32 } %11, 0
  tail call void @__clang_call_terminate(ptr %12) #37
  unreachable
}